(lp1
((dp2
S'C'
cnumpy.core.multiarray
scalar
p3
(cnumpy
dtype
p4
(S'f8'
I0
I1
tRp5
(I3
S'<'
NNNI-1
I-1
I0
tbS'\x8d\xed\xb5\xa0\xf7\xc6\xb0>'
tRp6
sS'coef0'
p7
I1
sS'gamma'
p8
F0.00057836899942163096
sS'degree'
p9
I1
sg3
(g5
S'V%W\xe3\x0cO\xd6?'
tRp10
tp11
a((dp12
S'C'
g6
sg7
I1
sg8
F0.00057836899942163096
sg9
I2
sg3
(g5
S'\x80R\xdb\x01\xdcj\xd5?'
tRp13
tp14
a((dp15
S'C'
g6
sg7
I1
sg8
F0.00057836899942163096
sg9
I3
sg3
(g5
S'\xe2\x13\xc0t\x90\x1b\xd6?'
tRp16
tp17
a((dp18
S'C'
g6
sg7
I1
sg8
F0.00057836899942163096
sg9
I4
sg3
(g5
S'!\x93Iy\x83\xcd\xd5?'
tRp19
tp20
a((dp21
S'C'
g6
sg7
I1
sg8
F0.00057836899942163096
sg9
I5
sg3
(g5
S'\x1bI\xc7\xc2\x96\xad\xd5?'
tRp22
tp23
a((dp24
S'C'
g6
sg7
I1
sg8
F0.00057836899942163096
sg9
I6
sg3
(g5
S'\x08<\xa6\n8\x9c\xd6?'
tRp25
tp26
a((dp27
S'C'
g6
sg7
I1
sg8
F0.00057836899942163096
sg9
I7
sg3
(g5
S'\xfb?\x87\xcb\xfb\xdc\xd6?'
tRp28
tp29
a((dp30
S'C'
g6
sg7
I1
sg8
F0.00057836899942163096
sg9
I8
sg3
(g5
S'\xa2\x06\xb9\x8b$\xe1\xd8?'
tRp31
tp32
a((dp33
S'C'
g6
sg7
I1
sg8
F0.00057836899942163096
sg9
I9
sg3
(g5
S'\x10]R!\x9b0\xd7?'
tRp34
tp35
a((dp36
S'C'
g3
(g5
S'\xf1h\xe3\x88\xb5\xf8\xe4>'
tRp37
sg7
I1
sg8
F0.00057836899942163096
sg9
I1
sg3
(g5
S'\xb6+\xaee@\x16\xd6?'
tRp38
tp39
a((dp40
S'C'
g37
sg7
I1
sg8
F0.00057836899942163096
sg9
I2
sg3
(g5
S'\xac\xd1\xb5\x10\x92\x17\xd6?'
tRp41
tp42
a((dp43
S'C'
g37
sg7
I1
sg8
F0.00057836899942163096
sg9
I3
sg3
(g5
S'\xea\x9c\xd3\xd6Q7\xd6?'
tRp44
tp45
a((dp46
S'C'
g37
sg7
I1
sg8
F0.00057836899942163096
sg9
I4
sg3
(g5
S'\xea?\x04~\x1b\x99\xd6?'
tRp47
tp48
a((dp49
S'C'
g37
sg7
I1
sg8
F0.00057836899942163096
sg9
I5
sg3
(g5
S'\xae\n\x19\x0c\xd71\xd7?'
tRp50
tp51
a((dp52
S'C'
g37
sg7
I1
sg8
F0.00057836899942163096
sg9
I6
sg3
(g5
S'\xd2\xd5\x8b4\xa1`\xd7?'
tRp53
tp54
a((dp55
S'C'
g37
sg7
I1
sg8
F0.00057836899942163096
sg9
I7
sg3
(g5
S'\xa3\xbb\x08\xac\xa1\xa7\xd6?'
tRp56
tp57
a((dp58
S'C'
g37
sg7
I1
sg8
F0.00057836899942163096
sg9
I8
sg3
(g5
S'>\x1e$h\xe3\x1f\xd8?'
tRp59
tp60
a((dp61
S'C'
g37
sg7
I1
sg8
F0.00057836899942163096
sg9
I9
sg3
(g5
S"'\x95\xe1\xb9\xf9\xd8\xd7?"
tRp62
tp63
a((dp64
S'C'
g3
(g5
S'-C\x1c\xeb\xe26\x1a?'
tRp65
sg7
I1
sg8
F0.00057836899942163096
sg9
I1
sg3
(g5
S'\xa3\xbaz\xdd\x83\x8f\xd5?'
tRp66
tp67
a((dp68
S'C'
g65
sg7
I1
sg8
F0.00057836899942163096
sg9
I2
sg3
(g5
S'\xed\xad\xa8\xc5\xc7\x87\xd5?'
tRp69
tp70
a((dp71
S'C'
g65
sg7
I1
sg8
F0.00057836899942163096
sg9
I3
sg3
(g5
S'S\xee\xc7\xe7+\xaa\xd6?'
tRp72
tp73
a((dp74
S'C'
g65
sg7
I1
sg8
F0.00057836899942163096
sg9
I4
sg3
(g5
S'\x82\x84oP _\xd6?'
tRp75
tp76
a((dp77
S'C'
g65
sg7
I1
sg8
F0.00057836899942163096
sg9
I5
sg3
(g5
S'\x9bC\x04L\xb8\xd1\xd5?'
tRp78
tp79
a((dp80
S'C'
g65
sg7
I1
sg8
F0.00057836899942163096
sg9
I6
sg3
(g5
S'\xb9Y\xee\x0b\xc5\xfb\xd6?'
tRp81
tp82
a((dp83
S'C'
g65
sg7
I1
sg8
F0.00057836899942163096
sg9
I7
sg3
(g5
S'\xceG5\x1e\xb6]\xd6?'
tRp84
tp85
a((dp86
S'C'
g65
sg7
I1
sg8
F0.00057836899942163096
sg9
I8
sg3
(g5
S'\x18\xfd\x12^r\xff\xd7?'
tRp87
tp88
a((dp89
S'C'
g65
sg7
I1
sg8
F0.00057836899942163096
sg9
I9
sg3
(g5
S'\xa3S\x15\x9ezM\xda?'
tRp90
tp91
a((dp92
S'C'
g3
(g5
S'\xfc\xa9\xf1\xd2MbP?'
tRp93
sg7
I1
sg8
F0.00057836899942163096
sg9
I1
sg3
(g5
S'\xed\x83G\n\x9e\xce\xd4?'
tRp94
tp95
a((dp96
S'C'
g93
sg7
I1
sg8
F0.00057836899942163096
sg9
I2
sg3
(g5
S'T\x82-\x04\xc4\x04\xd5?'
tRp97
tp98
a((dp99
S'C'
g93
sg7
I1
sg8
F0.00057836899942163096
sg9
I3
sg3
(g5
S'\xb0\xaef\xa4u\x03\xd6?'
tRp100
tp101
a((dp102
S'C'
g93
sg7
I1
sg8
F0.00057836899942163096
sg9
I4
sg3
(g5
S'\xa4\xec\x83\x9e\xceQ\xd5?'
tRp103
tp104
a((dp105
S'C'
g93
sg7
I1
sg8
F0.00057836899942163096
sg9
I5
sg3
(g5
S'\xbb\xe6\x96\xfa\xa1|\xd6?'
tRp106
tp107
a((dp108
S'C'
g93
sg7
I1
sg8
F0.00057836899942163096
sg9
I6
sg3
(g5
S'\xdc\xd2\x19^v\xd8\xd8?'
tRp109
tp110
a((dp111
S'C'
g93
sg7
I1
sg8
F0.00057836899942163096
sg9
I7
sg3
(g5
S'f\\\xa8Yb\x16\xd9?'
tRp112
tp113
a((dp114
S'C'
g93
sg7
I1
sg8
F0.00057836899942163096
sg9
I8
sg3
(g5
S'\x9d3v1\x97\x85\xdb?'
tRp115
tp116
a((dp117
S'C'
g93
sg7
I1
sg8
F0.00057836899942163096
sg9
I9
sg3
(g5
S'\x96)\x9f\x0e\xfch\xdd?'
tRp118
tp119
a((dp120
S'C'
g3
(g5
S'{\x14\xaeG\xe1z\x84?'
tRp121
sg7
I1
sg8
F0.00057836899942163096
sg9
I1
sg3
(g5
S'\x80\xc7z\x87>\xfd\xd5?'
tRp122
tp123
a((dp124
S'C'
g121
sg7
I1
sg8
F0.00057836899942163096
sg9
I2
sg3
(g5
S'\x83Xa\xdbv\x18\xd6?'
tRp125
tp126
a((dp127
S'C'
g121
sg7
I1
sg8
F0.00057836899942163096
sg9
I3
sg3
(g5
S'^Wc\xe3$)\xd6?'
tRp128
tp129
a((dp130
S'C'
g121
sg7
I1
sg8
F0.00057836899942163096
sg9
I4
sg3
(g5
S'\xc0G\xb2\x1f"a\xe3?'
tRp131
tp132
a((dp133
S'C'
g121
sg7
I1
sg8
F0.00057836899942163096
sg9
I5
sg3
(g5
S'\x97\xab\x05\xc7\x89\xa4\xe2?'
tRp134
tp135
a((dp136
S'C'
g121
sg7
I1
sg8
F0.00057836899942163096
sg9
I6
sg3
(g5
S'\x92$\xe44m\xec\xe1?'
tRp137
tp138
a((dp139
S'C'
g121
sg7
I1
sg8
F0.00057836899942163096
sg9
I7
sg3
(g5
S'\xe2\x1b\xc5v\rC\xe1?'
tRp140
tp141
a((dp142
S'C'
g121
sg7
I1
sg8
F0.00057836899942163096
sg9
I8
sg3
(g5
S'\x95\x00xv\xcb\x1d\xe1?'
tRp143
tp144
a((dp145
S'C'
g121
sg7
I1
sg8
F0.00057836899942163096
sg9
I9
sg3
(g5
S'\xc5\xd6\xf3\x14\xc6;\xde?'
tRp146
tp147
a((dp148
S'C'
g3
(g5
S'\x9a\x99\x99\x99\x99\x99\xb9?'
tRp149
sg7
I1
sg8
F0.00057836899942163096
sg9
I1
sg3
(g5
S'\xd5/\xf0\xfc\xf0\xd7\xd9?'
tRp150
tp151
a((dp152
S'C'
g149
sg7
I1
sg8
F0.00057836899942163096
sg9
I2
sg3
(g5
S'C\x0e\x9b\xafS8\xe5?'
tRp153
tp154
a((dp155
S'C'
g149
sg7
I1
sg8
F0.00057836899942163096
sg9
I3
sg3
(g5
S'\xba\xf3%\xb1L\xb5\xe4?'
tRp156
tp157
a((dp158
S'C'
g149
sg7
I1
sg8
F0.00057836899942163096
sg9
I4
sg3
(g5
S'5sH\x04\xc9\xbe\xe3?'
tRp159
tp160
a((dp161
S'C'
g149
sg7
I1
sg8
F0.00057836899942163096
sg9
I5
sg3
(g5
S'zvT\xb2\x8a\xe0\xe2?'
tRp162
tp163
a((dp164
S'C'
g149
sg7
I1
sg8
F0.00057836899942163096
sg9
I6
sg3
(g5
S'U\x8b\xa4\xca\x80\xfc\xe1?'
tRp165
tp166
a((dp167
S'C'
g149
sg7
I1
sg8
F0.00057836899942163096
sg9
I7
sg3
(g5
S'\x1dE\x82!\xaa\xae\xe1?'
tRp168
tp169
a((dp170
S'C'
g149
sg7
I1
sg8
F0.00057836899942163096
sg9
I8
sg3
(g5
S'|\x9a\x91g\xc8[\xe1?'
tRp171
tp172
a((dp173
S'C'
g149
sg7
I1
sg8
F0.00057836899942163096
sg9
I9
sg3
(g5
S'b\xa5\x05\x156)\xe1?'
tRp174
tp175
a((dp176
S'C'
g3
(g5
S'\x00\x00\x00\x00\x00\x00\xf0?'
tRp177
sg7
I1
sg8
F0.00057836899942163096
sg9
I1
sg3
(g5
S'v\x06\xe3e\x93\xa5\xe4?'
tRp178
tp179
a((dp180
S'C'
g177
sg7
I1
sg8
F0.00057836899942163096
sg9
I2
sg3
(g5
S'\x7f\x0eU\xc2\x07\xb1\xe4?'
tRp181
tp182
a((dp183
S'C'
g177
sg7
I1
sg8
F0.00057836899942163096
sg9
I3
sg3
(g5
S'h\xe2\x90\x96\xf0\r\xe4?'
tRp184
tp185
a((dp186
S'C'
g177
sg7
I1
sg8
F0.00057836899942163096
sg9
I4
sg3
(g5
S'\xfd\xd5\xe9\xe8\x121\xe3?'
tRp187
tp188
a((dp189
S'C'
g177
sg7
I1
sg8
F0.00057836899942163096
sg9
I5
sg3
(g5
S'X1\xcd\x89\r,\xe2?'
tRp190
tp191
a((dp192
S'C'
g177
sg7
I1
sg8
F0.00057836899942163096
sg9
I6
sg3
(g5
S'\xa8`c\xf0\xe5\xa8\xe1?'
tRp193
tp194
a((dp195
S'C'
g177
sg7
I1
sg8
F0.00057836899942163096
sg9
I7
sg3
(g5
S'\xff\x05\x9d\x10\x18|\xe1?'
tRp196
tp197
a((dp198
S'C'
g177
sg7
I1
sg8
F0.00057836899942163096
sg9
I8
sg3
(g5
S'~o\xdd\xaf\x9aY\xe1?'
tRp199
tp200
a((dp201
S'C'
g177
sg7
I1
sg8
F0.00057836899942163096
sg9
I9
sg3
(g5
S'\xd0\x9d\xd2\x9c`\xfc\xe0?'
tRp202
tp203
a((dp204
S'C'
g3
(g5
S'\x00\x00\x00\x00\x00\x00$@'
tRp205
sg7
I1
sg8
F0.00057836899942163096
sg9
I1
sg3
(g5
S'p\xd4\xe8\t|\x83\xe4?'
tRp206
tp207
a((dp208
S'C'
g205
sg7
I1
sg8
F0.00057836899942163096
sg9
I2
sg3
(g5
S'\x1e\x815Qx`\xe4?'
tRp209
tp210
a((dp211
S'C'
g205
sg7
I1
sg8
F0.00057836899942163096
sg9
I3
sg3
(g5
S'J\x8b2A\x9c\xf0\xe3?'
tRp212
tp213
a((dp214
S'C'
g205
sg7
I1
sg8
F0.00057836899942163096
sg9
I4
sg3
(g5
S'\x9f\xc1\x8d#\x90\xc3\xe2?'
tRp215
tp216
a((dp217
S'C'
g205
sg7
I1
sg8
F0.00057836899942163096
sg9
I5
sg3
(g5
S'\xfa\x14`\xf2Y^\xe2?'
tRp218
tp219
a((dp220
S'C'
g205
sg7
I1
sg8
F0.00057836899942163096
sg9
I6
sg3
(g5
S'g\xa3\nb\xce\xc3\xe1?'
tRp221
tp222
a((dp223
S'C'
g205
sg7
I1
sg8
F0.00057836899942163096
sg9
I7
sg3
(g5
S'\xd2\xc8-oQ\x8b\xe1?'
tRp224
tp225
a((dp226
S'C'
g205
sg7
I1
sg8
F0.00057836899942163096
sg9
I8
sg3
(g5
S'm:\xefX\x002\xe1?'
tRp227
tp228
a((dp229
S'C'
g205
sg7
I1
sg8
F0.00057836899942163096
sg9
I9
sg3
(g5
S'v\\\xdb\xbf\x08\xff\xdf?'
tRp230
tp231
a((dp232
S'C'
g3
(g5
S'\x00\x00\x00\x00\x00\x00Y@'
tRp233
sg7
I1
sg8
F0.00057836899942163096
sg9
I1
sg3
(g5
S'\r\x0c\xb4$\x92\xb2\xe4?'
tRp234
tp235
a((dp236
S'C'
g233
sg7
I1
sg8
F0.00057836899942163096
sg9
I2
sg3
(g5
S'vZ\x88\x0c\x17\x81\xe4?'
tRp237
tp238
a((dp239
S'C'
g233
sg7
I1
sg8
F0.00057836899942163096
sg9
I3
sg3
(g5
S'\xf2\xcbz\xf0\x89\xee\xe3?'
tRp240
tp241
a((dp242
S'C'
g233
sg7
I1
sg8
F0.00057836899942163096
sg9
I4
sg3
(g5
S'\x86\xef2`\xc9\xf0\xe2?'
tRp243
tp244
a((dp245
S'C'
g233
sg7
I1
sg8
F0.00057836899942163096
sg9
I5
sg3
(g5
S'\xe0\x04W\xd3\xa8-\xe2?'
tRp246
tp247
a((dp248
S'C'
g233
sg7
I1
sg8
F0.00057836899942163096
sg9
I6
sg3
(g5
S'\xca\xef{f\xf4\xc7\xe1?'
tRp249
tp250
a((dp251
S'C'
g233
sg7
I1
sg8
F0.00057836899942163096
sg9
I7
sg3
(g5
S'\xa3\xad\xf2\x181V\xe1?'
tRp252
tp253
a((dp254
S'C'
g233
sg7
I1
sg8
F0.00057836899942163096
sg9
I8
sg3
(g5
S'\x03\xe1\xb4\x81\xf7$\xe1?'
tRp255
tp256
a((dp257
S'C'
g233
sg7
I1
sg8
F0.00057836899942163096
sg9
I9
sg3
(g5
S'\xaa\x0eR\xfa+\xd6\xe0?'
tRp258
tp259
a((dp260
S'C'
g3
(g5
S'\x00\x00\x00\x00\x00@\x8f@'
tRp261
sg7
I1
sg8
F0.00057836899942163096
sg9
I1
sg3
(g5
S"\x1e'*\xfcN6\xe5?"
tRp262
tp263
a((dp264
S'C'
g261
sg7
I1
sg8
F0.00057836899942163096
sg9
I2
sg3
(g5
S'\xb4\xdc\xfcg=\xe5\xe4?'
tRp265
tp266
a((dp267
S'C'
g261
sg7
I1
sg8
F0.00057836899942163096
sg9
I3
sg3
(g5
S'\xea\xda\xaa#\xb6\xab\xe3?'
tRp268
tp269
a((dp270
S'C'
g261
sg7
I1
sg8
F0.00057836899942163096
sg9
I4
sg3
(g5
S'JUcm\xa1\xf6\xe2?'
tRp271
tp272
a((dp273
S'C'
g261
sg7
I1
sg8
F0.00057836899942163096
sg9
I5
sg3
(g5
S'\x98\x03 \r\xa2x\xe2?'
tRp274
tp275
a((dp276
S'C'
g261
sg7
I1
sg8
F0.00057836899942163096
sg9
I6
sg3
(g5
S'\xf3\xf1\x86\xd4\x00\xb4\xe1?'
tRp277
tp278
a((dp279
S'C'
g261
sg7
I1
sg8
F0.00057836899942163096
sg9
I7
sg3
(g5
S'\x82\xe0>\xc8 \x93\xe1?'
tRp280
tp281
a((dp282
S'C'
g261
sg7
I1
sg8
F0.00057836899942163096
sg9
I8
sg3
(g5
S'\x0c\x9fI=Xw\xe1?'
tRp283
tp284
a((dp285
S'C'
g261
sg7
I1
sg8
F0.00057836899942163096
sg9
I9
sg3
(g5
S"\x9e>A\xf3\x7f'\xe0?"
tRp286
tp287
a.