(dp1
S'scoring'
p2
S'roc_auc'
p3
sS'n_jobs'
p4
I1
sS'verbose'
p5
I0
sS'intercept_scaling'
p6
F1
sS'fit_intercept'
p7
I01
sS'max_iter'
p8
I100
sS'refit'
p9
I01
sS'penalty'
p10
S'l2'
p11
sS'multi_class'
p12
S'ovr'
p13
sS'random_state'
p14
NsS'dual'
p15
I00
sS'tol'
p16
F0.0001
sS'Cs'
p17
I10
sS'solver'
p18
S'lbfgs'
p19
sS'cv'
p20
I10
sS'class_weight'
p21
Ns.