(dp1
S'C'
cnumpy.core.multiarray
scalar
p2
(cnumpy
dtype
p3
(S'f8'
I0
I1
tRp4
(I3
S'<'
NNNI-1
I-1
I0
tbS'\x9a\x99\x99\x99\x99\x99\xb9?'
tRp5
sS'coef0'
p6
I1
sS'degree'
p7
I2
sS'gamma'
p8
F0.00057836899942163096
s.