ccopy_reg
_reconstructor
p1
(c__main__
ConstantModel
p2
c__builtin__
object
p3
NtRp4
(dp5
S'predicted_value'
p6
cnumpy.core.multiarray
scalar
p7
(cnumpy
dtype
p8
(S'i8'
I0
I1
tRp9
(I3
S'<'
NNNI-1
I-1
I0
tbS'\x00\x00\x00\x00\x00\x00\x00\x00'
tRp10
sb.