(dp1
S'C'
cnumpy.core.multiarray
scalar
p2
(cnumpy
dtype
p3
(S'f8'
I0
I1
tRp4
(I3
S'<'
NNNI-1
I-1
I0
tbS'\x00\x00\x00\x00\x00\x00Y@'
tRp5
sS'coef0'
p6
I1
sS'degree'
p7
I2
sS'gamma'
p8
F0.00066711140760506999
s.